; Function Attrs: mustprogress uwtable
define dso_local void @_ZN9OutputMgr28OutputStepHashFuncInvocationERSoii(ptr noundef nonnull align 8 dereferenceable(8) %0, i32 noundef %1, i32 noundef %2) local_unnamed_addr #4 align 2 {
  %4 = load ptr, ptr @_ZN9OutputMgr16monitored_funcs_B5cxx11E, align 8
  %5 = load ptr, ptr getelementptr inbounds (%"class.std::vector", ptr @_ZN9OutputMgr16monitored_funcs_B5cxx11E, i64 0, i32 0, i32 0, i32 0, i32 1), align 8
  %6 = icmp eq ptr %4, %5
  br i1 %6, label %_ZN9OutputMgr17is_monitored_funcEv.exit.thread, label %_ZN9OutputMgr17is_monitored_funcEv.exit

_ZN9OutputMgr17is_monitored_funcEv.exit:          ; preds = %3
  %7 = tail call ptr @_ZSt9__find_ifIN9__gnu_cxx17__normal_iteratorIPNSt7__cxx1112basic_stringIcSt11char_traitsIcESaIcEEESt6vectorIS7_SaIS7_EEEENS0_5__ops16_Iter_equals_valIKS7_EEET_SH_SH_T0_St26random_access_iterator_tag(ptr %4, ptr %5, ptr nonnull @_ZN9OutputMgr10curr_func_B5cxx11E)
  %8 = load ptr, ptr getelementptr inbounds (%"class.std::vector", ptr @_ZN9OutputMgr16monitored_funcs_B5cxx11E, i64 0, i32 0, i32 0, i32 0, i32 1), align 8
  %.not = icmp eq ptr %7, %8
  br i1 %.not, label %17, label %_ZN9OutputMgr17is_monitored_funcEv.exit.thread

_ZN9OutputMgr17is_monitored_funcEv.exit.thread:   ; preds = %3, %_ZN9OutputMgr17is_monitored_funcEv.exit
  %.not1.i = icmp eq i32 %1, 0
  br i1 %.not1.i, label %_ZN9OutputMgr11output_tab_ERSoi.exit, label %.lr.ph.i

.lr.ph.i:                                         ; preds = %_ZN9OutputMgr17is_monitored_funcEv.exit.thread, %.lr.ph.i
  %.02.i = phi i32 [ %9, %.lr.ph.i ], [ %1, %_ZN9OutputMgr17is_monitored_funcEv.exit.thread ]
  %9 = add nsw i32 %.02.i, -1
  %10 = tail call noundef nonnull align 8 dereferenceable(8) ptr @_ZStlsISt11char_traitsIcEERSt13basic_ostreamIcT_ES5_PKc(ptr noundef nonnull align 8 dereferenceable(8) %0, ptr noundef nonnull @.str.55)
  %.not.i = icmp eq i32 %9, 0
  br i1 %.not.i, label %_ZN9OutputMgr11output_tab_ERSoi.exit, label %.lr.ph.i, !llvm.loop !9

_ZN9OutputMgr11output_tab_ERSoi.exit:             ; preds = %.lr.ph.i, %_ZN9OutputMgr17is_monitored_funcEv.exit.thread
  %11 = load ptr, ptr @_ZN9OutputMgr19step_hash_func_nameE, align 8
  %12 = tail call noundef nonnull align 8 dereferenceable(8) ptr @_ZStlsISt11char_traitsIcEERSt13basic_ostreamIcT_ES5_PKc(ptr noundef nonnull align 8 dereferenceable(8) %0, ptr noundef %11)
  %13 = tail call noundef nonnull align 8 dereferenceable(8) ptr @_ZStlsISt11char_traitsIcEERSt13basic_ostreamIcT_ES5_PKc(ptr noundef nonnull align 8 dereferenceable(8) %12, ptr noundef nonnull @.str.15)
  %14 = tail call noundef nonnull align 8 dereferenceable(8) ptr @_ZNSolsEi(ptr noundef nonnull align 8 dereferenceable(8) %13, i32 noundef %2)
  %15 = tail call noundef nonnull align 8 dereferenceable(8) ptr @_ZStlsISt11char_traitsIcEERSt13basic_ostreamIcT_ES5_PKc(ptr noundef nonnull align 8 dereferenceable(8) %14, ptr noundef nonnull @.str.16)
  %16 = tail call noundef nonnull align 8 dereferenceable(8) ptr @_ZNSolsEPFRSoS_E(ptr noundef nonnull align 8 dereferenceable(8) %15, ptr noundef nonnull @_ZSt4endlIcSt11char_traitsIcEERSt13basic_ostreamIT_T0_ES6_)
  br label %17

17:                                               ; preds = %_ZN9OutputMgr11output_tab_ERSoi.exit, %_ZN9OutputMgr17is_monitored_funcEv.exit
  ret void
}